target datalayout = "e-m:e-p270:32:32-p271:32:32-p272:64:64-i64:64-i128:128-f80:128-n8:16:32:64-S128"
target triple = "x86_64-pc-linux-gnu"

%struct.AVInteger = type { [8 x i16] }

; Function Attrs: nounwind willreturn memory(none) uwtable
define i32 @av_cmp_i(i64 %0, i64 %1, i64 %2, i64 %3) #0 {
  %5 = alloca i32, align 4
  %6 = alloca %struct.AVInteger, align 2
  %7 = alloca %struct.AVInteger, align 2
  %8 = alloca i32, align 4
  %9 = alloca i32, align 4
  %10 = alloca i32, align 4
  %11 = alloca i32, align 4
  %12 = getelementptr inbounds nuw { i64, i64 }, ptr %6, i32 0, i32 0
  store i64 %0, ptr %12, align 2
  %13 = getelementptr inbounds nuw { i64, i64 }, ptr %6, i32 0, i32 1
  store i64 %1, ptr %13, align 2
  %14 = getelementptr inbounds nuw { i64, i64 }, ptr %7, i32 0, i32 0
  store i64 %2, ptr %14, align 2
  %15 = getelementptr inbounds nuw { i64, i64 }, ptr %7, i32 0, i32 1
  store i64 %3, ptr %15, align 2
  call void @llvm.lifetime.start.p0(i64 4, ptr %8) #6
  call void @llvm.lifetime.start.p0(i64 4, ptr %9) #6
  %16 = getelementptr inbounds nuw %struct.AVInteger, ptr %6, i32 0, i32 0
  %17 = getelementptr inbounds [8 x i16], ptr %16, i64 0, i64 7
  %18 = load i16, ptr %17, align 2, !tbaa !8
  %19 = sext i16 %18 to i32
  %20 = getelementptr inbounds nuw %struct.AVInteger, ptr %7, i32 0, i32 0
  %21 = getelementptr inbounds [8 x i16], ptr %20, i64 0, i64 7
  %22 = load i16, ptr %21, align 2, !tbaa !8
  %23 = sext i16 %22 to i32
  %24 = sub nsw i32 %19, %23
  store i32 %24, ptr %9, align 4, !tbaa !4
  %25 = load i32, ptr %9, align 4, !tbaa !4
  %26 = icmp ne i32 %25, 0
  br i1 %26, label %27, label %31

27:                                               ; preds = %4
  %28 = load i32, ptr %9, align 4, !tbaa !4
  %29 = ashr i32 %28, 16
  %30 = or i32 %29, 1
  store i32 %30, ptr %5, align 4
  store i32 1, ptr %10, align 4
  br label %63

31:                                               ; preds = %4
  store i32 6, ptr %8, align 4, !tbaa !4
  br label %32

32:                                               ; preds = %59, %31
  %33 = load i32, ptr %8, align 4, !tbaa !4
  %34 = icmp sge i32 %33, 0
  br i1 %34, label %35, label %62

35:                                               ; preds = %32
  call void @llvm.lifetime.start.p0(i64 4, ptr %11) #6
  %36 = getelementptr inbounds nuw %struct.AVInteger, ptr %6, i32 0, i32 0
  %37 = load i32, ptr %8, align 4, !tbaa !4
  %38 = sext i32 %37 to i64
  %39 = getelementptr inbounds [8 x i16], ptr %36, i64 0, i64 %38
  %40 = load i16, ptr %39, align 2, !tbaa !8
  %41 = zext i16 %40 to i32
  %42 = getelementptr inbounds nuw %struct.AVInteger, ptr %7, i32 0, i32 0
  %43 = load i32, ptr %8, align 4, !tbaa !4
  %44 = sext i32 %43 to i64
  %45 = getelementptr inbounds [8 x i16], ptr %42, i64 0, i64 %44
  %46 = load i16, ptr %45, align 2, !tbaa !8
  %47 = zext i16 %46 to i32
  %48 = sub nsw i32 %41, %47
  store i32 %48, ptr %11, align 4, !tbaa !4
  %49 = load i32, ptr %11, align 4, !tbaa !4
  %50 = icmp ne i32 %49, 0
  br i1 %50, label %51, label %55

51:                                               ; preds = %35
  %52 = load i32, ptr %11, align 4, !tbaa !4
  %53 = ashr i32 %52, 16
  %54 = or i32 %53, 1
  store i32 %54, ptr %5, align 4
  store i32 1, ptr %10, align 4
  br label %56

55:                                               ; preds = %35
  store i32 0, ptr %10, align 4
  br label %56

56:                                               ; preds = %55, %51
  call void @llvm.lifetime.end.p0(i64 4, ptr %11) #6
  %57 = load i32, ptr %10, align 4
  switch i32 %57, label %63 [
    i32 0, label %58
  ]

58:                                               ; preds = %56
  br label %59

59:                                               ; preds = %58
  %60 = load i32, ptr %8, align 4, !tbaa !4
  %61 = add nsw i32 %60, -1
  store i32 %61, ptr %8, align 4, !tbaa !4
  br label %32, !llvm.loop !18

62:                                               ; preds = %32
  store i32 0, ptr %5, align 4
  store i32 1, ptr %10, align 4
  br label %63

63:                                               ; preds = %62, %56, %27
  call void @llvm.lifetime.end.p0(i64 4, ptr %9) #6
  call void @llvm.lifetime.end.p0(i64 4, ptr %8) #6
  %64 = load i32, ptr %5, align 4
  ret i32 %64
}