; Function Attrs: mustprogress nofree norecurse nosync nounwind willreturn memory(none) uwtable
define i32 @av_cmp_i(i64 %0, i64 %1, i64 %2, i64 %3) local_unnamed_addr #0 {
  %5 = alloca %struct.AVInteger, align 8
  %6 = alloca %struct.AVInteger, align 8
  store i64 %0, ptr %5, align 8
  %7 = getelementptr inbounds nuw i8, ptr %5, i64 8
  store i64 %1, ptr %7, align 8
  store i64 %2, ptr %6, align 8
  %8 = getelementptr inbounds nuw i8, ptr %6, i64 8
  store i64 %3, ptr %8, align 8
  %9 = lshr i64 %1, 48
  %10 = lshr i64 %3, 48
  %.not = icmp eq i64 %9, %10
  br i1 %.not, label %.preheader, label %11

11:                                               ; preds = %4
  %12 = trunc nuw nsw i64 %10 to i32
  %13 = trunc nuw nsw i64 %9 to i32
  %sext = shl nuw i32 %12, 16
  %14 = ashr exact i32 %sext, 16
  %sext24 = shl nuw i32 %13, 16
  %15 = ashr exact i32 %sext24, 16
  %16 = sub nsw i32 %15, %14
  %17 = ashr i32 %16, 16
  %18 = or i32 %17, 1
  br label %.loopexit

19:                                               ; preds = %.preheader
  %20 = add nsw i32 %.01120, -1
  %.not25 = icmp eq i32 %.01120, 0
  br i1 %.not25, label %.loopexit, label %.preheader, !llvm.loop !15

.preheader:                                       ; preds = %4, %19
  %.01120 = phi i32 [ %20, %19 ], [ 6, %4 ]
  %21 = zext nneg i32 %.01120 to i64
  %22 = getelementptr inbounds nuw [8 x i16], ptr %5, i64 0, i64 %21
  %23 = load i16, ptr %22, align 2, !tbaa !4
  %24 = getelementptr inbounds nuw [8 x i16], ptr %6, i64 0, i64 %21
  %25 = load i16, ptr %24, align 2, !tbaa !4
  %.not14 = icmp eq i16 %23, %25
  br i1 %.not14, label %19, label %.loopexit.split.loop.exit

.loopexit.split.loop.exit:                        ; preds = %.preheader
  %26 = zext i16 %25 to i32
  %27 = zext i16 %23 to i32
  %28 = sub nsw i32 %27, %26
  %29 = ashr i32 %28, 16
  %30 = or i32 %29, 1
  br label %.loopexit

.loopexit:                                        ; preds = %19, %.loopexit.split.loop.exit, %11
  %.0 = phi i32 [ %18, %11 ], [ %30, %.loopexit.split.loop.exit ], [ 0, %19 ]
  ret i32 %.0
}